target datalayout = "e-m:e-p270:32:32-p271:32:32-p272:64:64-i64:64-i128:128-f80:128-n8:16:32:64-S128"
target triple = "x86_64-pc-linux-gnu"

%struct._packet_info = type { ptr, ptr, i32, i32, %struct.nstime_t, %struct.nstime_t, %struct.nstime_t, i32, ptr, ptr, ptr, ptr, %struct._address, %struct._address, %struct._address, %struct._address, %struct._address, %struct._address, i32, ptr, i32, %struct.anon, i32, i32, i32, i32, ptr, i32, ptr, ptr, i16, i16, i32, i32, i16, i32, i32, ptr, ptr, ptr, i8, i8, i16, i16, i16, i32, i16, i16, ptr, ptr, ptr, ptr, ptr, i32 }
%struct.nstime_t = type { i64, i32 }
%struct._address = type { i32, i32, ptr, ptr }
%struct.anon = type { i8, [3 x i8] }

@hf_zbee_zdp_nwk_addr = external global i32, align 4
@hf_zbee_zdp_user_length = external global i32, align 4
@hf_zbee_zdp_user = external global i32, align 4
@.str.14 = private unnamed_addr constant [31 x i8] c", Nwk Addr: 0x%04x, Desc: '%s'\00", align 1

; Function Attrs: nounwind uwtable
define hidden void @dissect_zbee_zdp_req_set_user_desc(ptr noundef %0, ptr noundef %1, ptr noundef %2, i8 noundef zeroext %3) #0 {
  %5 = alloca ptr, align 8
  %6 = alloca ptr, align 8
  %7 = alloca ptr, align 8
  %8 = alloca i8, align 1
  %9 = alloca i32, align 4
  %10 = alloca i32, align 4
  %11 = alloca i32, align 4
  %12 = alloca ptr, align 8
  store ptr %0, ptr %5, align 8
  store ptr %1, ptr %6, align 8
  store ptr %2, ptr %7, align 8
  store i8 %3, ptr %8, align 1
  store i32 0, ptr %9, align 4
  %13 = load ptr, ptr %7, align 8
  %14 = load i32, ptr @hf_zbee_zdp_nwk_addr, align 4
  %15 = load ptr, ptr %5, align 8
  %16 = load i32, ptr %9, align 4
  %17 = call ptr @proto_tree_add_item_ret_uint(ptr noundef %13, i32 noundef %14, ptr noundef %15, i32 noundef %16, i32 noundef 2, i32 noundef -2147483648, ptr noundef %10)
  %18 = load i32, ptr %9, align 4
  %19 = add i32 %18, 2
  store i32 %19, ptr %9, align 4
  %20 = load i8, ptr %8, align 1
  %21 = zext i8 %20 to i32
  %22 = icmp sge i32 %21, 2
  br i1 %22, label %23, label %31

23:                                               ; preds = %4
  %24 = load ptr, ptr %7, align 8
  %25 = load i32, ptr @hf_zbee_zdp_user_length, align 4
  %26 = load ptr, ptr %5, align 8
  %27 = load i32, ptr %9, align 4
  %28 = call ptr @proto_tree_add_item_ret_uint(ptr noundef %24, i32 noundef %25, ptr noundef %26, i32 noundef %27, i32 noundef 1, i32 noundef -2147483648, ptr noundef %11)
  %29 = load i32, ptr %9, align 4
  %30 = add i32 %29, 1
  store i32 %30, ptr %9, align 4
  br label %32

31:                                               ; preds = %4
  store i32 16, ptr %11, align 4
  br label %32

32:                                               ; preds = %31, %23
  %33 = load ptr, ptr %7, align 8
  %34 = load i32, ptr @hf_zbee_zdp_user, align 4
  %35 = load ptr, ptr %5, align 8
  %36 = load i32, ptr %9, align 4
  %37 = load i32, ptr %11, align 4
  %38 = load ptr, ptr %6, align 8
  %39 = getelementptr inbounds %struct._packet_info, ptr %38, i32 0, i32 50
  %40 = load ptr, ptr %39, align 8
  %41 = call ptr @proto_tree_add_item_ret_string(ptr noundef %33, i32 noundef %34, ptr noundef %35, i32 noundef %36, i32 noundef %37, i32 noundef 0, ptr noundef %40, ptr noundef %12)
  %42 = load i32, ptr %11, align 4
  %43 = load i32, ptr %9, align 4
  %44 = add i32 %43, %42
  store i32 %44, ptr %9, align 4
  %45 = load ptr, ptr %7, align 8
  %46 = load ptr, ptr %6, align 8
  %47 = load i32, ptr %10, align 4
  %48 = load ptr, ptr %12, align 8
  call void (ptr, ptr, ptr, ...) @zbee_append_info(ptr noundef %45, ptr noundef %46, ptr noundef @.str.14, i32 noundef %47, ptr noundef %48)
  %49 = load ptr, ptr %5, align 8
  %50 = load i32, ptr %9, align 4
  %51 = load ptr, ptr %6, align 8
  %52 = load ptr, ptr %7, align 8
  call void @zdp_dump_excess(ptr noundef %49, i32 noundef %50, ptr noundef %51, ptr noundef %52)
  ret void
}