; Function Attrs: nounwind uwtable
define hidden void @dissect_zbee_zdp_req_set_user_desc(ptr noundef %0, ptr noundef %1, ptr noundef %2, i8 noundef zeroext %3) local_unnamed_addr #0 {
  %5 = alloca i32, align 4
  %6 = alloca i32, align 4
  %7 = alloca ptr, align 8
  %8 = load i32, ptr @hf_zbee_zdp_nwk_addr, align 4
  %9 = call ptr @proto_tree_add_item_ret_uint(ptr noundef %2, i32 noundef %8, ptr noundef %0, i32 noundef 0, i32 noundef 2, i32 noundef -2147483648, ptr noundef nonnull %5) #2
  %10 = icmp ugt i8 %3, 1
  br i1 %10, label %11, label %14

11:                                               ; preds = %4
  %12 = load i32, ptr @hf_zbee_zdp_user_length, align 4
  %13 = call ptr @proto_tree_add_item_ret_uint(ptr noundef %2, i32 noundef %12, ptr noundef %0, i32 noundef 2, i32 noundef 1, i32 noundef -2147483648, ptr noundef nonnull %6) #2
  %.pre = load i32, ptr %6, align 4
  br label %15

14:                                               ; preds = %4
  store i32 16, ptr %6, align 4
  br label %15

15:                                               ; preds = %14, %11
  %16 = phi i32 [ %.pre, %11 ], [ 16, %14 ]
  %.0 = phi i32 [ 3, %11 ], [ 2, %14 ]
  %17 = load i32, ptr @hf_zbee_zdp_user, align 4
  %18 = getelementptr inbounds nuw i8, ptr %1, i64 408
  %19 = load ptr, ptr %18, align 8
  %20 = call ptr @proto_tree_add_item_ret_string(ptr noundef %2, i32 noundef %17, ptr noundef %0, i32 noundef %.0, i32 noundef %16, i32 noundef 0, ptr noundef %19, ptr noundef nonnull %7) #2
  %21 = load i32, ptr %6, align 4
  %22 = add i32 %21, %.0
  %23 = load i32, ptr %5, align 4
  %24 = load ptr, ptr %7, align 8
  call void (ptr, ptr, ptr, ...) @zbee_append_info(ptr noundef %2, ptr noundef %1, ptr noundef nonnull @.str.14, i32 noundef %23, ptr noundef %24) #2
  call void @zdp_dump_excess(ptr noundef %0, i32 noundef %22, ptr noundef %1, ptr noundef %2) #2
  ret void
}